; ModuleID = 'source-C-CXX/11/1587.c'
source_filename = "source-C-CXX/11/1587.c"
target datalayout = "e-m:e-p270:32:32-p271:32:32-p272:64:64-i64:64-f80:128-n8:16:32:64-S128"
target triple = "x86_64-pc-linux-gnu"

@.str = private unnamed_addr constant [3 x i8] c"%d\00", align 1
@.str.1 = private unnamed_addr constant [4 x i8] c"%d\0A\00", align 1

; Function Attrs: nofree nounwind sspstrong uwtable
define dso_local i32 @main() local_unnamed_addr #0 {
  %1 = alloca [16 x i32], align 16
  %2 = alloca [105 x i32], align 16
  %3 = bitcast [16 x i32]* %1 to i8*
  %4 = getelementptr inbounds [16 x i32], [16 x i32]* %1, i64 0, i64 0
  %5 = bitcast [105 x i32]* %2 to i8*
  %6 = getelementptr inbounds [16 x i32], [16 x i32]* %1, i64 0, i64 1
  call void @llvm.lifetime.start.p0i8(i64 64, i8* nonnull %3) #4
  %7 = call i32 (i8*, ...) @__isoc99_scanf(i8* getelementptr inbounds ([3 x i8], [3 x i8]* @.str, i64 0, i64 0), i32* nonnull %4)
  %8 = load i32, i32* %4, align 16, !tbaa !5
  %9 = icmp eq i32 %8, -1
  br i1 %9, label %50, label %10

10:                                               ; preds = %0, %45
  %11 = phi i32 [ %48, %45 ], [ %8, %0 ]
  call void @llvm.lifetime.start.p0i8(i64 420, i8* nonnull %5) #4
  call void @llvm.memset.p0i8.i64(i8* noundef nonnull align 16 dereferenceable(420) %5, i8 0, i64 420, i1 false)
  %12 = sext i32 %11 to i64
  %13 = getelementptr inbounds [105 x i32], [105 x i32]* %2, i64 0, i64 %12
  store i32 1, i32* %13, align 4, !tbaa !5
  %14 = call i32 (i8*, ...) @__isoc99_scanf(i8* getelementptr inbounds ([3 x i8], [3 x i8]* @.str, i64 0, i64 0), i32* nonnull %6)
  %15 = load i32, i32* %6, align 4, !tbaa !5
  %16 = icmp eq i32 %15, 0
  br i1 %16, label %27, label %17

17:                                               ; preds = %10, %17
  %18 = phi i64 [ %22, %17 ], [ 1, %10 ]
  %19 = phi i32 [ %25, %17 ], [ %15, %10 ]
  %20 = sext i32 %19 to i64
  %21 = getelementptr inbounds [105 x i32], [105 x i32]* %2, i64 0, i64 %20
  store i32 1, i32* %21, align 4, !tbaa !5
  %22 = add nuw i64 %18, 1
  %23 = getelementptr inbounds [16 x i32], [16 x i32]* %1, i64 0, i64 %22
  %24 = call i32 (i8*, ...) @__isoc99_scanf(i8* getelementptr inbounds ([3 x i8], [3 x i8]* @.str, i64 0, i64 0), i32* nonnull %23)
  %25 = load i32, i32* %23, align 4, !tbaa !5
  %26 = icmp eq i32 %25, 0
  br i1 %26, label %27, label %17

27:                                               ; preds = %17, %10
  br label %28

28:                                               ; preds = %62, %27
  %29 = phi i64 [ 1, %27 ], [ %64, %62 ]
  %30 = phi i32 [ 0, %27 ], [ %63, %62 ]
  %31 = getelementptr inbounds [105 x i32], [105 x i32]* %2, i64 0, i64 %29
  %32 = load i32, i32* %31, align 4, !tbaa !5
  %33 = icmp eq i32 %32, 1
  br i1 %33, label %34, label %41

34:                                               ; preds = %28
  %35 = shl nuw nsw i64 %29, 1
  %36 = getelementptr inbounds [105 x i32], [105 x i32]* %2, i64 0, i64 %35
  %37 = load i32, i32* %36, align 8, !tbaa !5
  %38 = icmp eq i32 %37, 1
  %39 = zext i1 %38 to i32
  %40 = add nsw i32 %30, %39
  br label %41

41:                                               ; preds = %34, %28
  %42 = phi i32 [ %30, %28 ], [ %40, %34 ]
  %43 = add nuw nsw i64 %29, 1
  %44 = icmp eq i64 %43, 50
  br i1 %44, label %45, label %51, !llvm.loop !9

45:                                               ; preds = %41
  %46 = call i32 (i8*, ...) @printf(i8* nonnull dereferenceable(1) getelementptr inbounds ([4 x i8], [4 x i8]* @.str.1, i64 0, i64 0), i32 %42)
  call void @llvm.lifetime.end.p0i8(i64 420, i8* nonnull %5) #4
  call void @llvm.lifetime.end.p0i8(i64 64, i8* nonnull %3) #4
  call void @llvm.lifetime.start.p0i8(i64 64, i8* nonnull %3) #4
  %47 = call i32 (i8*, ...) @__isoc99_scanf(i8* getelementptr inbounds ([3 x i8], [3 x i8]* @.str, i64 0, i64 0), i32* nonnull %4)
  %48 = load i32, i32* %4, align 16, !tbaa !5
  %49 = icmp eq i32 %48, -1
  br i1 %49, label %50, label %10

50:                                               ; preds = %45, %0
  call void @llvm.lifetime.end.p0i8(i64 64, i8* nonnull %3) #4
  ret i32 0

51:                                               ; preds = %41
  %52 = getelementptr inbounds [105 x i32], [105 x i32]* %2, i64 0, i64 %43
  %53 = load i32, i32* %52, align 4, !tbaa !5
  %54 = icmp eq i32 %53, 1
  br i1 %54, label %55, label %62

55:                                               ; preds = %51
  %56 = shl nuw nsw i64 %43, 1
  %57 = getelementptr inbounds [105 x i32], [105 x i32]* %2, i64 0, i64 %56
  %58 = load i32, i32* %57, align 8, !tbaa !5
  %59 = icmp eq i32 %58, 1
  %60 = zext i1 %59 to i32
  %61 = add nsw i32 %42, %60
  br label %62

62:                                               ; preds = %55, %51
  %63 = phi i32 [ %42, %51 ], [ %61, %55 ]
  %64 = add nuw nsw i64 %29, 2
  br label %28
}

; Function Attrs: argmemonly mustprogress nofree nosync nounwind willreturn
declare void @llvm.lifetime.start.p0i8(i64 immarg, i8* nocapture) #1

; Function Attrs: nofree nounwind
declare noundef i32 @__isoc99_scanf(i8* nocapture noundef readonly, ...) local_unnamed_addr #2

; Function Attrs: argmemonly mustprogress nofree nounwind willreturn writeonly
declare void @llvm.memset.p0i8.i64(i8* nocapture writeonly, i8, i64, i1 immarg) #3

; Function Attrs: nofree nounwind
declare noundef i32 @printf(i8* nocapture noundef readonly, ...) local_unnamed_addr #2

; Function Attrs: argmemonly mustprogress nofree nosync nounwind willreturn
declare void @llvm.lifetime.end.p0i8(i64 immarg, i8* nocapture) #1


!llvm.module.flags = !{!0, !1, !2, !3}
!llvm.ident = !{!4}

!0 = !{i32 1, !"wchar_size", i32 4}
!1 = !{i32 7, !"PIC Level", i32 2}
!2 = !{i32 7, !"PIE Level", i32 2}
!3 = !{i32 7, !"uwtable", i32 1}
!4 = !{!"clang version 13.0.0"}
!5 = !{!6, !6, i64 0}
!6 = !{!"int", !7, i64 0}
!7 = !{!"omnipotent char", !8, i64 0}
!8 = !{!"Simple C/C++ TBAA"}
!9 = distinct !{!9, !10}
!10 = !{!"llvm.loop.mustprogress"}
